target datalayout = "e-m:e-p270:32:32-p271:32:32-p272:64:64-i64:64-i128:128-f80:128-n8:16:32:64-S128"
target triple = "x86_64-pc-linux-gnu"

%struct.AVBitStreamFilter = type { ptr, ptr, ptr }
%struct.AVBSFContext = type { ptr, ptr, ptr, ptr, ptr, %struct.AVRational, %struct.AVRational }
%struct.AVRational = type { i32, i32 }
%struct.AVBSFList = type { ptr, i32 }
%struct.BSFListContext = type { ptr, ptr, i32, i32, ptr }

@list_bsf = internal constant { %struct.AVBitStreamFilter, i32, [4 x i8], ptr, ptr, ptr, ptr } { %struct.AVBitStreamFilter { ptr @.str.10, ptr null, ptr @bsf_list_class }, i32 32, [4 x i8] zeroinitializer, ptr @bsf_list_init, ptr @bsf_list_filter, ptr @bsf_list_close, ptr @bsf_list_flush }, align 8

; Function Attrs: nounwind uwtable
define i32 @av_bsf_list_finalize(ptr noundef %0, ptr noundef %1) #0 {
  %3 = alloca i32, align 4
  %4 = alloca ptr, align 8
  %5 = alloca ptr, align 8
  %6 = alloca i32, align 4
  %7 = alloca ptr, align 8
  %8 = alloca i32, align 4
  store ptr %0, ptr %4, align 8, !tbaa !65
  store ptr %1, ptr %5, align 8, !tbaa !4
  call void @llvm.lifetime.start.p0(i64 4, ptr %6) #6
  store i32 0, ptr %6, align 4, !tbaa !31
  call void @llvm.lifetime.start.p0(i64 8, ptr %7) #6
  %9 = load ptr, ptr %4, align 8, !tbaa !65
  %10 = load ptr, ptr %9, align 8, !tbaa !67
  %11 = getelementptr inbounds nuw %struct.AVBSFList, ptr %10, i32 0, i32 1
  %12 = load i32, ptr %11, align 8, !tbaa !69
  %13 = icmp eq i32 %12, 1
  br i1 %13, label %14, label %28

14:                                               ; preds = %2
  %15 = load ptr, ptr %4, align 8, !tbaa !65
  %16 = load ptr, ptr %15, align 8, !tbaa !67
  %17 = getelementptr inbounds nuw %struct.AVBSFList, ptr %16, i32 0, i32 0
  %18 = load ptr, ptr %17, align 8, !tbaa !71
  %19 = getelementptr inbounds ptr, ptr %18, i64 0
  %20 = load ptr, ptr %19, align 8, !tbaa !10
  %21 = load ptr, ptr %5, align 8, !tbaa !4
  store ptr %20, ptr %21, align 8, !tbaa !10
  %22 = load ptr, ptr %4, align 8, !tbaa !65
  %23 = load ptr, ptr %22, align 8, !tbaa !67
  %24 = getelementptr inbounds nuw %struct.AVBSFList, ptr %23, i32 0, i32 0
  call void @av_freep(ptr noundef %24)
  %25 = load ptr, ptr %4, align 8, !tbaa !65
  %26 = load ptr, ptr %25, align 8, !tbaa !67
  %27 = getelementptr inbounds nuw %struct.AVBSFList, ptr %26, i32 0, i32 1
  store i32 0, ptr %27, align 8, !tbaa !69
  br label %52

28:                                               ; preds = %2
  %29 = load ptr, ptr %5, align 8, !tbaa !4
  %30 = call i32 @av_bsf_alloc(ptr noundef @list_bsf, ptr noundef %29)
  store i32 %30, ptr %6, align 4, !tbaa !31
  %31 = load i32, ptr %6, align 4, !tbaa !31
  %32 = icmp slt i32 %31, 0
  br i1 %32, label %33, label %35

33:                                               ; preds = %28
  %34 = load i32, ptr %6, align 4, !tbaa !31
  store i32 %34, ptr %3, align 4
  store i32 1, ptr %8, align 4
  br label %55

35:                                               ; preds = %28
  %36 = load ptr, ptr %5, align 8, !tbaa !4
  %37 = load ptr, ptr %36, align 8, !tbaa !10
  %38 = getelementptr inbounds nuw %struct.AVBSFContext, ptr %37, i32 0, i32 2
  %39 = load ptr, ptr %38, align 8, !tbaa !14
  store ptr %39, ptr %7, align 8, !tbaa !81
  %40 = load ptr, ptr %4, align 8, !tbaa !65
  %41 = load ptr, ptr %40, align 8, !tbaa !67
  %42 = getelementptr inbounds nuw %struct.AVBSFList, ptr %41, i32 0, i32 0
  %43 = load ptr, ptr %42, align 8, !tbaa !71
  %44 = load ptr, ptr %7, align 8, !tbaa !81
  %45 = getelementptr inbounds nuw %struct.BSFListContext, ptr %44, i32 0, i32 1
  store ptr %43, ptr %45, align 8, !tbaa !83
  %46 = load ptr, ptr %4, align 8, !tbaa !65
  %47 = load ptr, ptr %46, align 8, !tbaa !67
  %48 = getelementptr inbounds nuw %struct.AVBSFList, ptr %47, i32 0, i32 1
  %49 = load i32, ptr %48, align 8, !tbaa !69
  %50 = load ptr, ptr %7, align 8, !tbaa !81
  %51 = getelementptr inbounds nuw %struct.BSFListContext, ptr %50, i32 0, i32 2
  store i32 %49, ptr %51, align 8, !tbaa !85
  br label %52

52:                                               ; preds = %35, %14
  %53 = load ptr, ptr %4, align 8, !tbaa !65
  call void @av_freep(ptr noundef %53)
  %54 = load i32, ptr %6, align 4, !tbaa !31
  store i32 %54, ptr %3, align 4
  store i32 1, ptr %8, align 4
  br label %55

55:                                               ; preds = %52, %33
  call void @llvm.lifetime.end.p0(i64 8, ptr %7) #6
  call void @llvm.lifetime.end.p0(i64 4, ptr %6) #6
  %56 = load i32, ptr %3, align 4
  ret i32 %56
}