; Function Attrs: nounwind uwtable
define range(i32 -12, 1) i32 @av_bsf_list_finalize(ptr noundef %0, ptr noundef captures(none) %1) local_unnamed_addr #0 {
  %3 = load ptr, ptr %0, align 8, !tbaa !55
  %4 = getelementptr inbounds nuw i8, ptr %3, i64 8
  %5 = load i32, ptr %4, align 8, !tbaa !57
  %6 = icmp eq i32 %5, 1
  br i1 %6, label %7, label %12

7:                                                ; preds = %2
  %8 = load ptr, ptr %3, align 8, !tbaa !60
  %9 = load ptr, ptr %8, align 8, !tbaa !4
  store ptr %9, ptr %1, align 8, !tbaa !4
  tail call void @av_freep(ptr noundef nonnull %3) #6
  %10 = load ptr, ptr %0, align 8, !tbaa !55
  %11 = getelementptr inbounds nuw i8, ptr %10, i64 8
  store i32 0, ptr %11, align 8, !tbaa !57
  br label %25

12:                                               ; preds = %2
  %13 = tail call i32 @av_bsf_alloc(ptr noundef nonnull @list_bsf, ptr noundef %1)
  %14 = icmp slt i32 %13, 0
  br i1 %14, label %26, label %15

15:                                               ; preds = %12
  %16 = load ptr, ptr %1, align 8, !tbaa !4
  %17 = getelementptr inbounds nuw i8, ptr %16, i64 16
  %18 = load ptr, ptr %17, align 8, !tbaa !9
  %19 = load ptr, ptr %0, align 8, !tbaa !55
  %20 = load ptr, ptr %19, align 8, !tbaa !60
  %21 = getelementptr inbounds nuw i8, ptr %18, i64 8
  store ptr %20, ptr %21, align 8, !tbaa !62
  %22 = getelementptr inbounds nuw i8, ptr %19, i64 8
  %23 = load i32, ptr %22, align 8, !tbaa !57
  %24 = getelementptr inbounds nuw i8, ptr %18, i64 16
  store i32 %23, ptr %24, align 8, !tbaa !64
  br label %25

25:                                               ; preds = %15, %7
  tail call void @av_freep(ptr noundef nonnull %0) #6
  br label %26

26:                                               ; preds = %12, %25
  %.0 = phi i32 [ 0, %25 ], [ %13, %12 ]
  ret i32 %.0
}